; Function Attrs: nofree norecurse nosync nounwind memory(argmem: readwrite) uwtable
define dso_local range(i64 -66, 4294967296) i64 @HIST_count_wksp(ptr noundef captures(none) %0, ptr noundef captures(none) %1, ptr noundef %2, i64 noundef %3, ptr noundef %4, i64 noundef %5) local_unnamed_addr #1 {
  %7 = ptrtoint ptr %4 to i64
  %8 = and i64 %7, 3
  %.not = icmp eq i64 %8, 0
  br i1 %.not, label %9, label %HIST_countFast_wksp.exit

9:                                                ; preds = %6
  %10 = icmp ult i64 %5, 4096
  br i1 %10, label %HIST_countFast_wksp.exit, label %11

11:                                               ; preds = %9
  %12 = load i32, ptr %1, align 4, !tbaa !4
  %13 = icmp ult i32 %12, 255
  br i1 %13, label %14, label %16

14:                                               ; preds = %11
  %15 = tail call fastcc i64 @HIST_count_parallel_wksp(ptr noundef %0, ptr noundef nonnull %1, ptr noundef %2, i64 noundef %3, i32 noundef 1, ptr noundef %4)
  br label %HIST_countFast_wksp.exit

16:                                               ; preds = %11
  store i32 255, ptr %1, align 4, !tbaa !4
  %17 = icmp ult i64 %3, 1500
  br i1 %17, label %18, label %38

18:                                               ; preds = %16
  %19 = getelementptr inbounds nuw i8, ptr %2, i64 %3
  tail call void @llvm.memset.p0.i64(ptr noundef nonnull align 4 dereferenceable(1024) %0, i8 0, i64 1024, i1 false)
  %20 = icmp eq i64 %3, 0
  br i1 %20, label %21, label %.lr.ph.i.i

21:                                               ; preds = %18
  store i32 0, ptr %1, align 4, !tbaa !4
  br label %HIST_countFast_wksp.exit

.lr.ph.i.i:                                       ; preds = %18, %.lr.ph.i.i
  %.02933.i.i = phi ptr [ %22, %.lr.ph.i.i ], [ %2, %18 ]
  %22 = getelementptr inbounds nuw i8, ptr %.02933.i.i, i64 1
  %23 = load i8, ptr %.02933.i.i, align 1, !tbaa !8
  %24 = zext i8 %23 to i64
  %25 = getelementptr inbounds nuw i32, ptr %0, i64 %24
  %26 = load i32, ptr %25, align 4, !tbaa !4
  %27 = add i32 %26, 1
  store i32 %27, ptr %25, align 4, !tbaa !4
  %28 = icmp ult ptr %22, %19
  br i1 %28, label %.lr.ph.i.i, label %.preheader.i.i, !llvm.loop !9

.preheader.i.i:                                   ; preds = %.lr.ph.i.i, %.preheader.i.i
  %.027.i.i = phi i32 [ %32, %.preheader.i.i ], [ 255, %.lr.ph.i.i ]
  %29 = zext i32 %.027.i.i to i64
  %30 = getelementptr inbounds nuw i32, ptr %0, i64 %29
  %31 = load i32, ptr %30, align 4, !tbaa !4
  %.not.i.i = icmp eq i32 %31, 0
  %32 = add i32 %.027.i.i, -1
  br i1 %.not.i.i, label %.preheader.i.i, label %33, !llvm.loop !11

33:                                               ; preds = %.preheader.i.i
  store i32 %.027.i.i, ptr %1, align 4, !tbaa !4
  br label %34

34:                                               ; preds = %34, %33
  %indvars.iv.i.i = phi i64 [ 0, %33 ], [ %indvars.iv.next.i.i, %34 ]
  %.02634.i.i = phi i32 [ 0, %33 ], [ %spec.select.i.i, %34 ]
  %35 = getelementptr inbounds nuw i32, ptr %0, i64 %indvars.iv.i.i
  %36 = load i32, ptr %35, align 4, !tbaa !4
  %spec.select.i.i = tail call i32 @llvm.umax.i32(i32 %36, i32 %.02634.i.i)
  %indvars.iv.next.i.i = add nuw nsw i64 %indvars.iv.i.i, 1
  %exitcond.not.i = icmp eq i64 %indvars.iv.i.i, %29
  br i1 %exitcond.not.i, label %HIST_count_simple.exit.loopexit.i, label %34, !llvm.loop !12

HIST_count_simple.exit.loopexit.i:                ; preds = %34
  %37 = zext i32 %spec.select.i.i to i64
  br label %HIST_countFast_wksp.exit

38:                                               ; preds = %16
  %39 = tail call fastcc i64 @HIST_count_parallel_wksp(ptr noundef %0, ptr noundef nonnull %1, ptr noundef %2, i64 noundef %3, i32 noundef 0, ptr noundef %4)
  br label %HIST_countFast_wksp.exit

HIST_countFast_wksp.exit:                         ; preds = %38, %HIST_count_simple.exit.loopexit.i, %21, %9, %6, %14
  %.0 = phi i64 [ %15, %14 ], [ -1, %6 ], [ -66, %9 ], [ %39, %38 ], [ 0, %21 ], [ %37, %HIST_count_simple.exit.loopexit.i ]
  ret i64 %.0
}